; Function Attrs: nounwind uwtable
define dso_local ptr @abi_arg_new_direct_coerce_type(ptr nocapture noundef readonly %0) local_unnamed_addr #2 {
  %2 = tail call ptr @calloc_arena(i64 noundef 32) #5
  %3 = getelementptr inbounds i8, ptr %2, i64 4
  %4 = load i8, ptr %3, align 4
  %5 = and i8 %4, -64
  %6 = or disjoint i8 %5, 3
  store i8 %6, ptr %3, align 4
  %7 = getelementptr inbounds i8, ptr %0, i64 8
  %8 = load ptr, ptr %7, align 8
  %9 = getelementptr inbounds i8, ptr %2, i64 8
  store ptr %8, ptr %9, align 8
  ret ptr %2
}